; Function Attrs: nounwind uwtable
define void @col_append_sep_fstr(ptr noundef readonly %0, i32 noundef %1, ptr noundef %2, ptr noundef readonly captures(none) %3, ...) local_unnamed_addr #0 {
  %5 = alloca [1 x %struct.__va_list_tag], align 16
  %6 = icmp eq ptr %0, null
  br i1 %6, label %col_get_writable.exit.thread, label %7

7:                                                ; preds = %4
  %8 = icmp eq i32 %1, -1
  %.phi.trans.insert.i = getelementptr inbounds nuw i8, ptr %0, i64 56
  %.pre.i = load i32, ptr %.phi.trans.insert.i, align 8
  br i1 %8, label %col_get_writable.exit, label %9

9:                                                ; preds = %7
  %10 = icmp eq i32 %.pre.i, 0
  br i1 %10, label %col_get_writable.exit.thread, label %11

11:                                               ; preds = %9
  %12 = getelementptr inbounds nuw i8, ptr %0, i64 24
  %13 = load ptr, ptr %12, align 8
  %14 = sext i32 %1 to i64
  %15 = getelementptr i32, ptr %13, i64 %14
  %16 = load i32, ptr %15, align 4
  %17 = icmp sgt i32 %16, -1
  br i1 %17, label %.preheader.i, label %col_get_writable.exit.thread

.preheader.i:                                     ; preds = %11
  %18 = getelementptr inbounds nuw i8, ptr %0, i64 32
  %19 = load ptr, ptr %18, align 8
  %20 = getelementptr i32, ptr %19, i64 %14
  %21 = load i32, ptr %20, align 4
  %.not22.i = icmp sgt i32 %16, %21
  br i1 %.not22.i, label %col_get_writable.exit.thread, label %.lr.ph.i

.lr.ph.i:                                         ; preds = %.preheader.i
  %22 = getelementptr inbounds nuw i8, ptr %0, i64 16
  %23 = load ptr, ptr %22, align 8
  br label %26

24:                                               ; preds = %26
  %25 = add i32 %.01723.i, 1
  %.not.i = icmp sgt i32 %25, %21
  br i1 %.not.i, label %col_get_writable.exit.thread, label %26, !llvm.loop !9

26:                                               ; preds = %24, %.lr.ph.i
  %.01723.i = phi i32 [ %16, %.lr.ph.i ], [ %25, %24 ]
  %27 = sext i32 %.01723.i to i64
  %28 = getelementptr %struct.col_item_t, ptr %23, i64 %27
  %29 = getelementptr inbounds nuw i8, ptr %28, i64 8
  %30 = load ptr, ptr %29, align 8
  %31 = getelementptr i32, ptr %30, i64 %14
  %32 = load i32, ptr %31, align 4
  %.not21.i = icmp eq i32 %32, 0
  br i1 %.not21.i, label %24, label %33

33:                                               ; preds = %26
  %34 = getelementptr inbounds nuw i8, ptr %28, i64 76
  %35 = load i32, ptr %34, align 4
  br label %col_get_writable.exit

col_get_writable.exit:                            ; preds = %7, %33
  %.0.i = phi i32 [ %35, %33 ], [ %.pre.i, %7 ]
  %.not = icmp eq i32 %.0.i, 0
  br i1 %.not, label %col_get_writable.exit.thread, label %36

36:                                               ; preds = %col_get_writable.exit
  %37 = getelementptr inbounds nuw i8, ptr %0, i64 24
  %38 = load ptr, ptr %37, align 8
  %39 = sext i32 %1 to i64
  %40 = getelementptr i32, ptr %38, i64 %39
  %41 = load i32, ptr %40, align 4
  %42 = icmp sgt i32 %41, -1
  br i1 %42, label %43, label %col_get_writable.exit.thread

43:                                               ; preds = %36
  %44 = icmp eq ptr %2, null
  %spec.store.select = select i1 %44, ptr @.str.5, ptr %2
  call void @llvm.va_start.p0(ptr nonnull %5)
  call fastcc void @col_do_append_fstr(ptr noundef nonnull %0, i32 noundef %1, ptr noundef nonnull %spec.store.select, ptr noundef %3, ptr noundef %5)
  call void @llvm.va_end.p0(ptr nonnull %5)
  br label %col_get_writable.exit.thread

col_get_writable.exit.thread:                     ; preds = %24, %9, %.preheader.i, %11, %4, %col_get_writable.exit, %36, %43
  ret void
}